; Function Attrs: mustprogress nofree norecurse nosync nounwind willreturn memory(read, inaccessiblemem: none) uwtable
define hidden noundef i64 @_ZNK10ODDLParser5Value4sizeEv(ptr noundef nonnull readonly align 8 captures(none) dereferenceable(32) %0) local_unnamed_addr #3 align 2 {
  br label %2

2:                                                ; preds = %2, %1
  %.04 = phi i64 [ 1, %1 ], [ %3, %2 ]
  %.pn = phi ptr [ %0, %1 ], [ %.0, %2 ]
  %.0.in = getelementptr inbounds nuw i8, ptr %.pn, i64 24
  %.0 = load ptr, ptr %.0.in, align 8
  %.not = icmp eq ptr %.0, null
  %3 = add i64 %.04, 1
  br i1 %.not, label %4, label %2, !llvm.loop !47

4:                                                ; preds = %2
  ret i64 %.04
}